target datalayout = "e-m:e-p270:32:32-p271:32:32-p272:64:64-i64:64-i128:128-f80:128-n8:16:32:64-S128"
target triple = "x86_64-pc-linux-gnu"

%struct.HashJoinTableData = type { i32, i32, i32, i32, i32, %union.anon, i8, ptr, i32, i32, ptr, i32, i32, i32, i32, i8, double, double, double, ptr, ptr, i64, i64, i64, i64, i64, ptr, ptr, ptr, ptr, ptr, ptr, ptr, ptr, i64 }
%union.anon = type { ptr }

@CurrentMemoryContext = external global ptr, align 8

; Function Attrs: inlinehint nounwind uwtable
define internal ptr @MemoryContextSwitchTo(ptr noundef %0) #3 {
  %2 = alloca ptr, align 8
  %3 = alloca ptr, align 8
  store ptr %0, ptr %2, align 8
  call void @llvm.lifetime.start.p0(i64 8, ptr %3) #9
  %4 = load ptr, ptr @CurrentMemoryContext, align 8
  store ptr %4, ptr %3, align 8
  %5 = load ptr, ptr %2, align 8
  store ptr %5, ptr @CurrentMemoryContext, align 8
  %6 = load ptr, ptr %3, align 8
  call void @llvm.lifetime.end.p0(i64 8, ptr %3) #9
  ret ptr %6
}

; Function Attrs: nounwind uwtable
define dso_local void @ExecHashTableReset(ptr noundef %0) #0 {
  %2 = alloca ptr, align 8
  %3 = alloca ptr, align 8
  %4 = alloca i32, align 4
  store ptr %0, ptr %2, align 8
  call void @llvm.lifetime.start.p0(i64 8, ptr %3) #9
  call void @llvm.lifetime.start.p0(i64 4, ptr %4) #9
  %5 = load ptr, ptr %2, align 8
  %6 = getelementptr inbounds nuw %struct.HashJoinTableData, ptr %5, i32 0, i32 0
  %7 = load i32, ptr %6, align 8
  store i32 %7, ptr %4, align 4
  %8 = load ptr, ptr %2, align 8
  %9 = getelementptr inbounds nuw %struct.HashJoinTableData, ptr %8, i32 0, i32 27
  %10 = load ptr, ptr %9, align 8
  call void @MemoryContextReset(ptr noundef %10)
  %11 = load ptr, ptr %2, align 8
  %12 = getelementptr inbounds nuw %struct.HashJoinTableData, ptr %11, i32 0, i32 27
  %13 = load ptr, ptr %12, align 8
  %14 = call ptr @MemoryContextSwitchTo(ptr noundef %13)
  store ptr %14, ptr %3, align 8
  %15 = load i32, ptr %4, align 4
  %16 = sext i32 %15 to i64
  %17 = mul i64 8, %16
  %18 = call ptr @palloc0(i64 noundef %17)
  %19 = load ptr, ptr %2, align 8
  %20 = getelementptr inbounds nuw %struct.HashJoinTableData, ptr %19, i32 0, i32 5
  store ptr %18, ptr %20, align 8
  %21 = load ptr, ptr %2, align 8
  %22 = getelementptr inbounds nuw %struct.HashJoinTableData, ptr %21, i32 0, i32 21
  store i64 0, ptr %22, align 8
  %23 = load ptr, ptr %3, align 8
  %24 = call ptr @MemoryContextSwitchTo(ptr noundef %23)
  %25 = load ptr, ptr %2, align 8
  %26 = getelementptr inbounds nuw %struct.HashJoinTableData, ptr %25, i32 0, i32 29
  store ptr null, ptr %26, align 8
  call void @llvm.lifetime.end.p0(i64 4, ptr %4) #9
  call void @llvm.lifetime.end.p0(i64 8, ptr %3) #9
  ret void
}