; Function Attrs: nounwind uwtable
define dso_local void @ExecHashTableReset(ptr noundef captures(none) initializes((24, 32), (128, 136), (192, 200)) %0) local_unnamed_addr #0 {
  %2 = load i32, ptr %0, align 8
  %3 = getelementptr inbounds nuw i8, ptr %0, i64 176
  %4 = load ptr, ptr %3, align 8
  tail call void @MemoryContextReset(ptr noundef %4) #16
  %5 = load ptr, ptr %3, align 8
  %6 = load ptr, ptr @CurrentMemoryContext, align 8
  store ptr %5, ptr @CurrentMemoryContext, align 8
  %7 = sext i32 %2 to i64
  %8 = shl nsw i64 %7, 3
  %9 = tail call ptr @palloc0(i64 noundef %8) #16
  %10 = getelementptr inbounds nuw i8, ptr %0, i64 24
  store ptr %9, ptr %10, align 8
  %11 = getelementptr inbounds nuw i8, ptr %0, i64 128
  store i64 0, ptr %11, align 8
  store ptr %6, ptr @CurrentMemoryContext, align 8
  %12 = getelementptr inbounds nuw i8, ptr %0, i64 192
  store ptr null, ptr %12, align 8
  ret void
}